target datalayout = "e-m:e-p270:32:32-p271:32:32-p272:64:64-i64:64-i128:128-f80:128-n8:16:32:64-S128"
target triple = "x86_64-pc-linux-gnu"

%struct._header_field_info = type { ptr, ptr, i32, i32, ptr, i64, ptr, i32, i32, i32, i32, ptr }

@__const.check_field_unit.item_unit_names = private unnamed_addr constant [11 x ptr] [ptr @.str, ptr @.str.1, ptr @.str.2, ptr @.str.3, ptr @.str.4, ptr @.str.5, ptr @.str.6, ptr @.str.7, ptr @.str.8, ptr @.str.9, ptr null], align 16
@.str.10 = private unnamed_addr constant [33 x i8] c"You didn't specify a field name.\00", align 1
@.str.11 = private unnamed_addr constant [1 x i8] zeroinitializer, align 1
@.str.12 = private unnamed_addr constant [30 x i8] c"There is no field named '%s'.\00", align 1
@.str.13 = private unnamed_addr constant [49 x i8] c"LOAD is only supported for relative-time fields.\00", align 1
@.str.14 = private unnamed_addr constant [72 x i8] c"\22%s\22 is a relative-time field. %s calculations are not supported on it.\00", align 1
@.str.15 = private unnamed_addr constant [85 x i8] c"\22%s\22 doesn't have integral or float values. %s calculations are not supported on it.\00", align 1

; Function Attrs: nounwind uwtable
define hidden ptr @check_field_unit(ptr noundef %0, ptr noundef %1, i32 noundef %2) #0 {
  %4 = alloca ptr, align 8
  %5 = alloca ptr, align 8
  %6 = alloca ptr, align 8
  %7 = alloca i32, align 4
  %8 = alloca ptr, align 8
  %9 = alloca ptr, align 8
  %10 = alloca [11 x ptr], align 16
  store ptr %0, ptr %5, align 8
  store ptr %1, ptr %6, align 8
  store i32 %2, ptr %7, align 4
  store ptr null, ptr %8, align 8
  %11 = load i32, ptr %7, align 4
  %12 = icmp uge i32 %11, 3
  br i1 %12, label %13, label %83

13:                                               ; preds = %3
  call void @llvm.memcpy.p0.p0.i64(ptr align 16 %10, ptr align 16 @__const.check_field_unit.item_unit_names, i64 88, i1 false)
  %14 = load ptr, ptr %5, align 8
  %15 = icmp eq ptr %14, null
  br i1 %15, label %22, label %16

16:                                               ; preds = %13
  %17 = load ptr, ptr %5, align 8
  %18 = getelementptr i8, ptr %17, i64 0
  %19 = load i8, ptr %18, align 1
  %20 = sext i8 %19 to i32
  %21 = icmp eq i32 %20, 0
  br i1 %21, label %22, label %25

22:                                               ; preds = %16, %13
  %23 = call ptr @g_string_new(ptr noundef @.str.10)
  store ptr %23, ptr %8, align 8
  %24 = load ptr, ptr %8, align 8
  store ptr %24, ptr %4, align 8
  br label %85

25:                                               ; preds = %16
  %26 = load ptr, ptr %5, align 8
  %27 = call ptr @proto_registrar_get_byname(ptr noundef %26)
  store ptr %27, ptr %9, align 8
  %28 = load ptr, ptr %9, align 8
  %29 = icmp eq ptr %28, null
  br i1 %29, label %30, label %35

30:                                               ; preds = %25
  %31 = call ptr @g_string_new(ptr noundef @.str.11)
  store ptr %31, ptr %8, align 8
  %32 = load ptr, ptr %8, align 8
  %33 = load ptr, ptr %5, align 8
  call void (ptr, ptr, ...) @g_string_printf(ptr noundef %32, ptr noundef @.str.12, ptr noundef %33)
  %34 = load ptr, ptr %8, align 8
  store ptr %34, ptr %4, align 8
  br label %85

35:                                               ; preds = %25
  %36 = load ptr, ptr %6, align 8
  %37 = icmp ne ptr %36, null
  br i1 %37, label %38, label %43

38:                                               ; preds = %35
  %39 = load ptr, ptr %9, align 8
  %40 = getelementptr inbounds %struct._header_field_info, ptr %39, i32 0, i32 7
  %41 = load i32, ptr %40, align 8
  %42 = load ptr, ptr %6, align 8
  store i32 %41, ptr %42, align 4
  br label %43

43:                                               ; preds = %38, %35
  %44 = load ptr, ptr %9, align 8
  %45 = getelementptr inbounds %struct._header_field_info, ptr %44, i32 0, i32 2
  %46 = load i32, ptr %45, align 8
  switch i32 %46, label %67 [
    i32 4, label %47
    i32 5, label %47
    i32 6, label %47
    i32 7, label %47
    i32 11, label %47
    i32 12, label %47
    i32 13, label %47
    i32 14, label %47
    i32 15, label %47
    i32 19, label %47
    i32 22, label %47
    i32 23, label %47
    i32 25, label %53
  ]

47:                                               ; preds = %43, %43, %43, %43, %43, %43, %43, %43, %43, %43, %43, %43
  %48 = load i32, ptr %7, align 4
  switch i32 %48, label %51 [
    i32 9, label %49
  ]

49:                                               ; preds = %47
  %50 = call ptr @g_string_new(ptr noundef @.str.13)
  store ptr %50, ptr %8, align 8
  br label %51

51:                                               ; preds = %49, %47
  br label %52

52:                                               ; preds = %51
  br label %82

53:                                               ; preds = %43
  %54 = load i32, ptr %7, align 4
  switch i32 %54, label %56 [
    i32 3, label %55
    i32 4, label %55
    i32 5, label %55
    i32 6, label %55
    i32 7, label %55
    i32 8, label %55
    i32 9, label %55
  ]

55:                                               ; preds = %53, %53, %53, %53, %53, %53, %53
  br label %66

56:                                               ; preds = %53
  br label %57

57:                                               ; preds = %56
  br label %58

58:                                               ; preds = %57
  %59 = call ptr @g_string_new(ptr noundef @.str.11)
  store ptr %59, ptr %8, align 8
  %60 = load ptr, ptr %8, align 8
  %61 = load ptr, ptr %5, align 8
  %62 = load i32, ptr %7, align 4
  %63 = zext i32 %62 to i64
  %64 = getelementptr [11 x ptr], ptr %10, i64 0, i64 %63
  %65 = load ptr, ptr %64, align 8
  call void (ptr, ptr, ...) @g_string_printf(ptr noundef %60, ptr noundef @.str.14, ptr noundef %61, ptr noundef %65)
  br label %66

66:                                               ; preds = %58, %55
  br label %82

67:                                               ; preds = %43
  %68 = load i32, ptr %7, align 4
  %69 = icmp ne i32 %68, 4
  br i1 %69, label %70, label %81

70:                                               ; preds = %67
  %71 = load i32, ptr %7, align 4
  %72 = icmp ne i32 %71, 5
  br i1 %72, label %73, label %81

73:                                               ; preds = %70
  %74 = call ptr @g_string_new(ptr noundef @.str.11)
  store ptr %74, ptr %8, align 8
  %75 = load ptr, ptr %8, align 8
  %76 = load ptr, ptr %5, align 8
  %77 = load i32, ptr %7, align 4
  %78 = zext i32 %77 to i64
  %79 = getelementptr [11 x ptr], ptr %10, i64 0, i64 %78
  %80 = load ptr, ptr %79, align 8
  call void (ptr, ptr, ...) @g_string_printf(ptr noundef %75, ptr noundef @.str.15, ptr noundef %76, ptr noundef %80)
  br label %81

81:                                               ; preds = %73, %70, %67
  br label %82

82:                                               ; preds = %81, %66, %52
  br label %83

83:                                               ; preds = %82, %3
  %84 = load ptr, ptr %8, align 8
  store ptr %84, ptr %4, align 8
  br label %85

85:                                               ; preds = %83, %30, %22
  %86 = load ptr, ptr %4, align 8
  ret ptr %86
}