; Function Attrs: nounwind uwtable
define hidden ptr @check_field_unit(ptr noundef %0, ptr noundef writeonly %1, i32 noundef %2) local_unnamed_addr #1 {
  %4 = icmp ugt i32 %2, 2
  br i1 %4, label %5, label %40

5:                                                ; preds = %3
  %6 = icmp eq ptr %0, null
  br i1 %6, label %10, label %7

7:                                                ; preds = %5
  %8 = load i8, ptr %0, align 1
  %9 = icmp eq i8 %8, 0
  br i1 %9, label %10, label %12

10:                                               ; preds = %7, %5
  %11 = tail call ptr @g_string_new(ptr noundef nonnull @.str.10) #3
  br label %40

12:                                               ; preds = %7
  %13 = tail call ptr @proto_registrar_get_byname(ptr noundef nonnull %0) #3
  %14 = icmp eq ptr %13, null
  br i1 %14, label %15, label %17

15:                                               ; preds = %12
  %16 = tail call ptr @g_string_new(ptr noundef nonnull @.str.11) #3
  tail call void (ptr, ptr, ...) @g_string_printf(ptr noundef %16, ptr noundef nonnull @.str.12, ptr noundef nonnull %0) #3
  br label %40

17:                                               ; preds = %12
  %.not = icmp eq ptr %1, null
  br i1 %.not, label %21, label %18

18:                                               ; preds = %17
  %19 = getelementptr inbounds nuw i8, ptr %13, i64 48
  %20 = load i32, ptr %19, align 8
  store i32 %20, ptr %1, align 4
  br label %21

21:                                               ; preds = %18, %17
  %22 = getelementptr inbounds nuw i8, ptr %13, i64 16
  %23 = load i32, ptr %22, align 8
  switch i32 %23, label %33 [
    i32 4, label %24
    i32 5, label %24
    i32 6, label %24
    i32 7, label %24
    i32 11, label %24
    i32 12, label %24
    i32 13, label %24
    i32 14, label %24
    i32 15, label %24
    i32 19, label %24
    i32 22, label %24
    i32 23, label %24
    i32 25, label %27
  ]

24:                                               ; preds = %21, %21, %21, %21, %21, %21, %21, %21, %21, %21, %21, %21
  %cond = icmp eq i32 %2, 9
  br i1 %cond, label %25, label %40

25:                                               ; preds = %24
  %26 = tail call ptr @g_string_new(ptr noundef nonnull @.str.13) #3
  br label %40

27:                                               ; preds = %21
  %.off = add i32 %2, -3
  %switch = icmp ult i32 %.off, 7
  br i1 %switch, label %40, label %28

28:                                               ; preds = %27
  %29 = tail call ptr @g_string_new(ptr noundef nonnull @.str.11) #3
  %30 = zext i32 %2 to i64
  %31 = getelementptr [11 x ptr], ptr @__const.check_field_unit.item_unit_names, i64 0, i64 %30
  %32 = load ptr, ptr %31, align 8
  tail call void (ptr, ptr, ...) @g_string_printf(ptr noundef %29, ptr noundef nonnull @.str.14, ptr noundef nonnull %0, ptr noundef %32) #3
  br label %40

33:                                               ; preds = %21
  %34 = add i32 %2, -6
  %or.cond = icmp ult i32 %34, -2
  br i1 %or.cond, label %35, label %40

35:                                               ; preds = %33
  %36 = tail call ptr @g_string_new(ptr noundef nonnull @.str.11) #3
  %37 = zext i32 %2 to i64
  %38 = getelementptr [11 x ptr], ptr @__const.check_field_unit.item_unit_names, i64 0, i64 %37
  %39 = load ptr, ptr %38, align 8
  tail call void (ptr, ptr, ...) @g_string_printf(ptr noundef %36, ptr noundef nonnull @.str.15, ptr noundef nonnull %0, ptr noundef %39) #3
  br label %40

40:                                               ; preds = %3, %33, %35, %28, %24, %25, %27, %15, %10
  %.0 = phi ptr [ %11, %10 ], [ %16, %15 ], [ %36, %35 ], [ null, %33 ], [ %29, %28 ], [ null, %27 ], [ %26, %25 ], [ null, %24 ], [ null, %3 ]
  ret ptr %.0
}